target datalayout = "e-m:e-p270:32:32-p271:32:32-p272:64:64-i64:64-i128:128-f80:128-n8:16:32:64-S128"
target triple = "x86_64-pc-linux-gnu"

%struct.sqlite3_vfs = type { i32, i32, i32, ptr, ptr, ptr, ptr, ptr, ptr, ptr, ptr, ptr, ptr, ptr, ptr, ptr, ptr, ptr, ptr, ptr, ptr, ptr }
%struct.vfstrace_info = type { ptr, ptr, i32, i8, ptr, ptr, ptr }

@.str.528 = private unnamed_addr constant [16 x i8] c"%s.xDlError(%d)\00", align 1
@.str.529 = private unnamed_addr constant [9 x i8] c" -> \22%s\22\00", align 1

; Function Attrs: nounwind uwtable
define internal void @vfstraceOnOff(ptr noundef %0, i32 noundef %1) #0 {
  %3 = alloca ptr, align 8
  %4 = alloca i32, align 4
  store ptr %0, ptr %3, align 8, !tbaa !240
  store i32 %1, ptr %4, align 4, !tbaa !3
  %5 = load ptr, ptr %3, align 8, !tbaa !240
  %6 = getelementptr inbounds nuw %struct.vfstrace_info, ptr %5, i32 0, i32 2
  %7 = load i32, ptr %6, align 8, !tbaa !266
  %8 = load i32, ptr %4, align 4, !tbaa !3
  %9 = and i32 %7, %8
  %10 = icmp ne i32 %9, 0
  %11 = zext i1 %10 to i32
  %12 = trunc i32 %11 to i8
  %13 = load ptr, ptr %3, align 8, !tbaa !240
  %14 = getelementptr inbounds nuw %struct.vfstrace_info, ptr %13, i32 0, i32 3
  store i8 %12, ptr %14, align 4, !tbaa !267
  ret void
}

; Function Attrs: nounwind uwtable
define internal void @vfstraceDlError(ptr noundef %0, i32 noundef %1, ptr noundef %2) #0 {
  %4 = alloca ptr, align 8
  %5 = alloca i32, align 4
  %6 = alloca ptr, align 8
  %7 = alloca ptr, align 8
  %8 = alloca ptr, align 8
  store ptr %0, ptr %4, align 8, !tbaa !107
  store i32 %1, ptr %5, align 4, !tbaa !3
  store ptr %2, ptr %6, align 8, !tbaa !36
  call void @llvm.lifetime.start.p0(i64 8, ptr %7) #14
  %9 = load ptr, ptr %4, align 8, !tbaa !107
  %10 = getelementptr inbounds nuw %struct.sqlite3_vfs, ptr %9, i32 0, i32 5
  %11 = load ptr, ptr %10, align 8, !tbaa !111
  store ptr %11, ptr %7, align 8, !tbaa !240
  call void @llvm.lifetime.start.p0(i64 8, ptr %8) #14
  %12 = load ptr, ptr %7, align 8, !tbaa !240
  %13 = getelementptr inbounds nuw %struct.vfstrace_info, ptr %12, i32 0, i32 0
  %14 = load ptr, ptr %13, align 8, !tbaa !260
  store ptr %14, ptr %8, align 8, !tbaa !107
  %15 = load ptr, ptr %7, align 8, !tbaa !240
  call void @vfstraceOnOff(ptr noundef %15, i32 noundef 2097152)
  %16 = load ptr, ptr %7, align 8, !tbaa !240
  %17 = load ptr, ptr %7, align 8, !tbaa !240
  %18 = getelementptr inbounds nuw %struct.vfstrace_info, ptr %17, i32 0, i32 5
  %19 = load ptr, ptr %18, align 8, !tbaa !264
  %20 = load i32, ptr %5, align 4, !tbaa !3
  call void (ptr, ptr, ...) @vfstrace_printf(ptr noundef %16, ptr noundef @.str.528, ptr noundef %19, i32 noundef %20)
  %21 = load ptr, ptr %8, align 8, !tbaa !107
  %22 = getelementptr inbounds nuw %struct.sqlite3_vfs, ptr %21, i32 0, i32 11
  %23 = load ptr, ptr %22, align 8, !tbaa !249
  %24 = load ptr, ptr %8, align 8, !tbaa !107
  %25 = load i32, ptr %5, align 4, !tbaa !3
  %26 = load ptr, ptr %6, align 8, !tbaa !36
  call void %23(ptr noundef %24, i32 noundef %25, ptr noundef %26)
  %27 = load ptr, ptr %7, align 8, !tbaa !240
  %28 = load ptr, ptr %6, align 8, !tbaa !36
  call void (ptr, ptr, ...) @vfstrace_printf(ptr noundef %27, ptr noundef @.str.529, ptr noundef %28)
  call void @llvm.lifetime.end.p0(i64 8, ptr %8) #14
  call void @llvm.lifetime.end.p0(i64 8, ptr %7) #14
  ret void
}