; Function Attrs: nounwind uwtable
define internal void @vfstraceDlError(ptr noundef readonly captures(none) %0, i32 noundef %1, ptr noundef %2) #2 {
  %4 = getelementptr inbounds nuw i8, ptr %0, i64 32
  %5 = load ptr, ptr %4, align 8, !tbaa !136
  %6 = load ptr, ptr %5, align 8, !tbaa !293
  %7 = getelementptr inbounds nuw i8, ptr %5, i64 16
  %8 = load i32, ptr %7, align 8, !tbaa !299
  %9 = lshr i32 %8, 21
  %10 = trunc i32 %9 to i8
  %11 = and i8 %10, 1
  %12 = getelementptr inbounds nuw i8, ptr %5, i64 20
  store i8 %11, ptr %12, align 4, !tbaa !300
  %13 = getelementptr inbounds nuw i8, ptr %5, i64 32
  %14 = load ptr, ptr %13, align 8, !tbaa !297
  tail call void (ptr, ptr, ...) @vfstrace_printf(ptr noundef nonnull %5, ptr noundef nonnull @.str.528, ptr noundef %14, i32 noundef %1)
  %15 = getelementptr inbounds nuw i8, ptr %6, i64 80
  %16 = load ptr, ptr %15, align 8, !tbaa !282
  tail call void %16(ptr noundef %6, i32 noundef %1, ptr noundef %2) #43
  tail call void (ptr, ptr, ...) @vfstrace_printf(ptr noundef nonnull %5, ptr noundef nonnull @.str.529, ptr noundef %2)
  ret void
}